target datalayout = "e-m:e-p270:32:32-p271:32:32-p272:64:64-i64:64-i128:128-f80:128-n8:16:32:64-S128"
target triple = "x86_64-pc-linux-gnu"

%"class.ue2::graph_detail::vertex_descriptor" = type { ptr, i64 }
%"struct.ue2::RoseEdgeProps" = type <{ i64, i32, i32, i32, i8, [3 x i8], i32, [4 x i8] }>
%"struct.ue2::(anonymous namespace)::EdgeAndVertex" = type { ptr, %"class.ue2::graph_detail::vertex_descriptor", ptr }

; Function Attrs: mustprogress nounwind uwtable
define linkonce_odr hidden noundef zeroext i1 @_ZNK3ue212graph_detail17vertex_descriptorINS_9ue2_graphINS_9RoseGraphENS_15RoseVertexPropsENS_13RoseEdgePropsEEEEeqES7_(ptr noundef nonnull align 8 dereferenceable(16) %0, ptr %1, i64 %2) #1 comdat align 2 {
  %4 = alloca %"class.ue2::graph_detail::vertex_descriptor", align 8
  %5 = alloca ptr, align 8
  %6 = getelementptr inbounds nuw { ptr, i64 }, ptr %4, i32 0, i32 0
  store ptr %1, ptr %6, align 8
  %7 = getelementptr inbounds nuw { ptr, i64 }, ptr %4, i32 0, i32 1
  store i64 %2, ptr %7, align 8
  store ptr %0, ptr %5, align 8
  %8 = load ptr, ptr %5, align 8
  %9 = getelementptr inbounds nuw %"class.ue2::graph_detail::vertex_descriptor", ptr %8, i32 0, i32 0
  %10 = load ptr, ptr %9, align 8
  %11 = getelementptr inbounds nuw %"class.ue2::graph_detail::vertex_descriptor", ptr %4, i32 0, i32 0
  %12 = load ptr, ptr %11, align 8
  %13 = icmp eq ptr %10, %12
  ret i1 %13
}

; Function Attrs: mustprogress nounwind uwtable
define internal noundef zeroext i1 @_ZNK3ue212_GLOBAL__N_113EdgeAndVertexeqERKS1_(ptr noundef nonnull align 8 dereferenceable(32) %0, ptr noundef nonnull align 8 dereferenceable(32) %1) unnamed_addr #1 align 2 {
  %3 = alloca ptr, align 8
  %4 = alloca ptr, align 8
  %5 = alloca %"class.ue2::graph_detail::vertex_descriptor", align 8
  store ptr %0, ptr %3, align 8
  store ptr %1, ptr %4, align 8
  %6 = load ptr, ptr %3, align 8
  %7 = getelementptr inbounds nuw %"struct.ue2::(anonymous namespace)::EdgeAndVertex", ptr %6, i32 0, i32 1
  %8 = load ptr, ptr %4, align 8
  %9 = getelementptr inbounds nuw %"struct.ue2::(anonymous namespace)::EdgeAndVertex", ptr %8, i32 0, i32 1
  call void @llvm.memcpy.p0.p0.i64(ptr align 8 %5, ptr align 8 %9, i64 16, i1 false)
  %10 = getelementptr inbounds nuw { ptr, i64 }, ptr %5, i32 0, i32 0
  %11 = load ptr, ptr %10, align 8
  %12 = getelementptr inbounds nuw { ptr, i64 }, ptr %5, i32 0, i32 1
  %13 = load i64, ptr %12, align 8
  %14 = call noundef zeroext i1 @_ZNK3ue212graph_detail17vertex_descriptorINS_9ue2_graphINS_9RoseGraphENS_15RoseVertexPropsENS_13RoseEdgePropsEEEEeqES7_(ptr noundef nonnull align 8 dereferenceable(16) %7, ptr %11, i64 %13)
  br i1 %14, label %15, label %59

15:                                               ; preds = %2
  %16 = getelementptr inbounds nuw %"struct.ue2::(anonymous namespace)::EdgeAndVertex", ptr %6, i32 0, i32 2
  %17 = load ptr, ptr %16, align 8
  %18 = getelementptr inbounds nuw %"struct.ue2::RoseEdgeProps", ptr %17, i32 0, i32 1
  %19 = load i32, ptr %18, align 8
  %20 = load ptr, ptr %4, align 8
  %21 = getelementptr inbounds nuw %"struct.ue2::(anonymous namespace)::EdgeAndVertex", ptr %20, i32 0, i32 2
  %22 = load ptr, ptr %21, align 8
  %23 = getelementptr inbounds nuw %"struct.ue2::RoseEdgeProps", ptr %22, i32 0, i32 1
  %24 = load i32, ptr %23, align 8
  %25 = icmp eq i32 %19, %24
  br i1 %25, label %26, label %59

26:                                               ; preds = %15
  %27 = getelementptr inbounds nuw %"struct.ue2::(anonymous namespace)::EdgeAndVertex", ptr %6, i32 0, i32 2
  %28 = load ptr, ptr %27, align 8
  %29 = getelementptr inbounds nuw %"struct.ue2::RoseEdgeProps", ptr %28, i32 0, i32 2
  %30 = load i32, ptr %29, align 4
  %31 = load ptr, ptr %4, align 8
  %32 = getelementptr inbounds nuw %"struct.ue2::(anonymous namespace)::EdgeAndVertex", ptr %31, i32 0, i32 2
  %33 = load ptr, ptr %32, align 8
  %34 = getelementptr inbounds nuw %"struct.ue2::RoseEdgeProps", ptr %33, i32 0, i32 2
  %35 = load i32, ptr %34, align 4
  %36 = icmp eq i32 %30, %35
  br i1 %36, label %37, label %59

37:                                               ; preds = %26
  %38 = getelementptr inbounds nuw %"struct.ue2::(anonymous namespace)::EdgeAndVertex", ptr %6, i32 0, i32 2
  %39 = load ptr, ptr %38, align 8
  %40 = getelementptr inbounds nuw %"struct.ue2::RoseEdgeProps", ptr %39, i32 0, i32 3
  %41 = load i32, ptr %40, align 8
  %42 = load ptr, ptr %4, align 8
  %43 = getelementptr inbounds nuw %"struct.ue2::(anonymous namespace)::EdgeAndVertex", ptr %42, i32 0, i32 2
  %44 = load ptr, ptr %43, align 8
  %45 = getelementptr inbounds nuw %"struct.ue2::RoseEdgeProps", ptr %44, i32 0, i32 3
  %46 = load i32, ptr %45, align 8
  %47 = icmp eq i32 %41, %46
  br i1 %47, label %48, label %59

48:                                               ; preds = %37
  %49 = getelementptr inbounds nuw %"struct.ue2::(anonymous namespace)::EdgeAndVertex", ptr %6, i32 0, i32 2
  %50 = load ptr, ptr %49, align 8
  %51 = getelementptr inbounds nuw %"struct.ue2::RoseEdgeProps", ptr %50, i32 0, i32 6
  %52 = load i32, ptr %51, align 8
  %53 = load ptr, ptr %4, align 8
  %54 = getelementptr inbounds nuw %"struct.ue2::(anonymous namespace)::EdgeAndVertex", ptr %53, i32 0, i32 2
  %55 = load ptr, ptr %54, align 8
  %56 = getelementptr inbounds nuw %"struct.ue2::RoseEdgeProps", ptr %55, i32 0, i32 6
  %57 = load i32, ptr %56, align 8
  %58 = icmp eq i32 %52, %57
  br label %59

59:                                               ; preds = %48, %37, %26, %15, %2
  %60 = phi i1 [ false, %37 ], [ false, %26 ], [ false, %15 ], [ false, %2 ], [ %58, %48 ]
  ret i1 %60
}