; Function Attrs: mustprogress nofree norecurse nosync nounwind willreturn memory(read, inaccessiblemem: none) uwtable
define internal noundef zeroext i1 @_ZNK3ue212_GLOBAL__N_113EdgeAndVertexeqERKS1_(ptr noundef nonnull readonly align 8 captures(none) dereferenceable(32) %0, ptr noundef nonnull readonly align 8 captures(none) dereferenceable(32) %1) unnamed_addr #15 align 2 {
  %3 = getelementptr inbounds nuw i8, ptr %0, i64 8
  %4 = getelementptr inbounds nuw i8, ptr %1, i64 8
  %.sroa.0.0.copyload = load ptr, ptr %4, align 8
  %5 = load ptr, ptr %3, align 8
  %6 = icmp eq ptr %5, %.sroa.0.0.copyload
  br i1 %6, label %7, label %35

7:                                                ; preds = %2
  %8 = getelementptr inbounds nuw i8, ptr %0, i64 24
  %9 = load ptr, ptr %8, align 8
  %10 = getelementptr inbounds nuw i8, ptr %9, i64 8
  %11 = load i32, ptr %10, align 8
  %12 = getelementptr inbounds nuw i8, ptr %1, i64 24
  %13 = load ptr, ptr %12, align 8
  %14 = getelementptr inbounds nuw i8, ptr %13, i64 8
  %15 = load i32, ptr %14, align 8
  %16 = icmp eq i32 %11, %15
  br i1 %16, label %17, label %35

17:                                               ; preds = %7
  %18 = getelementptr inbounds nuw i8, ptr %9, i64 12
  %19 = load i32, ptr %18, align 4
  %20 = getelementptr inbounds nuw i8, ptr %13, i64 12
  %21 = load i32, ptr %20, align 4
  %22 = icmp eq i32 %19, %21
  br i1 %22, label %23, label %35

23:                                               ; preds = %17
  %24 = getelementptr inbounds nuw i8, ptr %9, i64 16
  %25 = load i32, ptr %24, align 8
  %26 = getelementptr inbounds nuw i8, ptr %13, i64 16
  %27 = load i32, ptr %26, align 8
  %28 = icmp eq i32 %25, %27
  br i1 %28, label %29, label %35

29:                                               ; preds = %23
  %30 = getelementptr inbounds nuw i8, ptr %9, i64 24
  %31 = load i32, ptr %30, align 8
  %32 = getelementptr inbounds nuw i8, ptr %13, i64 24
  %33 = load i32, ptr %32, align 8
  %34 = icmp eq i32 %31, %33
  br label %35

35:                                               ; preds = %29, %23, %17, %7, %2
  %36 = phi i1 [ false, %23 ], [ false, %17 ], [ false, %7 ], [ false, %2 ], [ %34, %29 ]
  ret i1 %36
}